target datalayout = "e-m:e-p270:32:32-p271:32:32-p272:64:64-i64:64-i128:128-f80:128-n8:16:32:64-S128"
target triple = "x86_64-unknown-linux-gnu"

%struct.ngtcp2_mem = type { ptr, ptr, ptr, ptr, ptr }
%struct.nghttp3_mem = type { ptr, ptr, ptr, ptr, ptr }

; Function Attrs: mustprogress nounwind uwtable
define linkonce_odr dso_local void @_ZN4node3mem18NgLibMemoryManagerINS_4quic11BindingDataE10ngtcp2_memE13MakeAllocatorEv(ptr noalias sret(%struct.ngtcp2_mem) align 8 %agg.result, ptr noundef nonnull align 8 dereferenceable(8) %this) #4 comdat align 2 {
entry:
  %this.addr = alloca ptr, align 8
  store ptr %this, ptr %this.addr, align 8
  %this1 = load ptr, ptr %this.addr, align 8
  %user_data = getelementptr inbounds %struct.ngtcp2_mem, ptr %agg.result, i32 0, i32 0
  %sub.ptr = getelementptr inbounds i8, ptr %this1, i64 -32
  store ptr %sub.ptr, ptr %user_data, align 8
  %malloc = getelementptr inbounds %struct.ngtcp2_mem, ptr %agg.result, i32 0, i32 1
  store ptr @_ZN4node3mem18NgLibMemoryManagerINS_4quic11BindingDataE10ngtcp2_memE10MallocImplEmPv, ptr %malloc, align 8
  %free = getelementptr inbounds %struct.ngtcp2_mem, ptr %agg.result, i32 0, i32 2
  store ptr @_ZN4node3mem18NgLibMemoryManagerINS_4quic11BindingDataE10ngtcp2_memE8FreeImplEPvS6_, ptr %free, align 8
  %calloc = getelementptr inbounds %struct.ngtcp2_mem, ptr %agg.result, i32 0, i32 3
  store ptr @_ZN4node3mem18NgLibMemoryManagerINS_4quic11BindingDataE10ngtcp2_memE10CallocImplEmmPv, ptr %calloc, align 8
  %realloc = getelementptr inbounds %struct.ngtcp2_mem, ptr %agg.result, i32 0, i32 4
  store ptr @_ZN4node3mem18NgLibMemoryManagerINS_4quic11BindingDataE10ngtcp2_memE11ReallocImplEPvmS6_, ptr %realloc, align 8
  ret void
}

; Function Attrs: mustprogress nounwind uwtable
define dso_local void @_ZN4node4quic11BindingDatacv10ngtcp2_memEv(ptr noalias sret(%struct.ngtcp2_mem) align 8 %agg.result, ptr noundef nonnull align 8 dereferenceable(992) %this) #4 align 2 {
entry:
  %this.addr = alloca ptr, align 8
  store ptr %this, ptr %this.addr, align 8
  %this1 = load ptr, ptr %this.addr, align 8
  %add.ptr = getelementptr inbounds i8, ptr %this1, i64 32
  call void @_ZN4node3mem18NgLibMemoryManagerINS_4quic11BindingDataE10ngtcp2_memE13MakeAllocatorEv(ptr sret(%struct.ngtcp2_mem) align 8 %agg.result, ptr noundef nonnull align 8 dereferenceable(8) %add.ptr)
  ret void
}

; Function Attrs: mustprogress nounwind uwtable
define dso_local void @_ZN4node4quic11BindingDatacv11nghttp3_memEv(ptr noalias sret(%struct.nghttp3_mem) align 8 %agg.result, ptr noundef nonnull align 8 dereferenceable(992) %this) #4 align 2 {
entry:
  %this.addr = alloca ptr, align 8
  %allocator = alloca %struct.ngtcp2_mem, align 8
  store ptr %this, ptr %this.addr, align 8
  %this1 = load ptr, ptr %this.addr, align 8
  call void @_ZN4node4quic11BindingDatacv10ngtcp2_memEv(ptr sret(%struct.ngtcp2_mem) align 8 %allocator, ptr noundef nonnull align 8 dereferenceable(992) %this1)
  %user_data = getelementptr inbounds %struct.nghttp3_mem, ptr %agg.result, i32 0, i32 0
  %user_data2 = getelementptr inbounds %struct.ngtcp2_mem, ptr %allocator, i32 0, i32 0
  %0 = load ptr, ptr %user_data2, align 8
  store ptr %0, ptr %user_data, align 8
  %malloc = getelementptr inbounds %struct.nghttp3_mem, ptr %agg.result, i32 0, i32 1
  %malloc3 = getelementptr inbounds %struct.ngtcp2_mem, ptr %allocator, i32 0, i32 1
  %1 = load ptr, ptr %malloc3, align 8
  store ptr %1, ptr %malloc, align 8
  %free = getelementptr inbounds %struct.nghttp3_mem, ptr %agg.result, i32 0, i32 2
  %free4 = getelementptr inbounds %struct.ngtcp2_mem, ptr %allocator, i32 0, i32 2
  %2 = load ptr, ptr %free4, align 8
  store ptr %2, ptr %free, align 8
  %calloc = getelementptr inbounds %struct.nghttp3_mem, ptr %agg.result, i32 0, i32 3
  %calloc5 = getelementptr inbounds %struct.ngtcp2_mem, ptr %allocator, i32 0, i32 3
  %3 = load ptr, ptr %calloc5, align 8
  store ptr %3, ptr %calloc, align 8
  %realloc = getelementptr inbounds %struct.nghttp3_mem, ptr %agg.result, i32 0, i32 4
  %realloc6 = getelementptr inbounds %struct.ngtcp2_mem, ptr %allocator, i32 0, i32 4
  %4 = load ptr, ptr %realloc6, align 8
  store ptr %4, ptr %realloc, align 8
  ret void
}