; Function Attrs: mustprogress nofree norecurse nosync nounwind willreturn memory(argmem: write) uwtable
define dso_local void @_ZN4node4quic11BindingDatacv11nghttp3_memEv(ptr noalias nocapture writeonly sret(%struct.nghttp3_mem) align 8 %agg.result, ptr noundef nonnull align 8 dereferenceable(992) %this) local_unnamed_addr #4 align 2 {
entry:
  store ptr %this, ptr %agg.result, align 8
  %malloc = getelementptr inbounds i8, ptr %agg.result, i64 8
  store ptr @_ZN4node3mem18NgLibMemoryManagerINS_4quic11BindingDataE10ngtcp2_memE10MallocImplEmPv, ptr %malloc, align 8
  %free = getelementptr inbounds i8, ptr %agg.result, i64 16
  store ptr @_ZN4node3mem18NgLibMemoryManagerINS_4quic11BindingDataE10ngtcp2_memE8FreeImplEPvS6_, ptr %free, align 8
  %calloc = getelementptr inbounds i8, ptr %agg.result, i64 24
  store ptr @_ZN4node3mem18NgLibMemoryManagerINS_4quic11BindingDataE10ngtcp2_memE10CallocImplEmmPv, ptr %calloc, align 8
  %realloc = getelementptr inbounds i8, ptr %agg.result, i64 32
  store ptr @_ZN4node3mem18NgLibMemoryManagerINS_4quic11BindingDataE10ngtcp2_memE11ReallocImplEPvmS6_, ptr %realloc, align 8
  ret void
}